(dp1
S'output'
p2
S"<type 'exceptions.TypeError'> unsupported operand type(s) for +: 'int' and 'str'"
p3
sS'layer'
p4
S'/Users/arnaudgallardo/Documents/UCSC/web2py/applications/liub/controllers/default.py'
p5
sS'code'
p6
S'import math\n# -*- coding: utf-8 -*-\n# this file is released under public domain and you can use without limitations\n\n#########################################################################\n## This is a sample controller\n## - index is the default action of any application\n## - user is required for authentication and authorization\n## - download is for downloading files uploaded in the db (does streaming)\n#########################################################################\n\ndef index():\n    """\n    example action using the internationalization operator T and flash\n    rendered by views/default/index.html or views/generic.html\n\n    if you need a simple wiki simply replace the two lines below with:\n    return auth.wiki()\n    """\n    #response.flash = T("Hello World")\n    return dict(message=T(\'Welcome to web2py!\'))\n\n\ndef convert_pos(lat, long):\n    longitude_shift = 0\n    x_pos = 0\n    y_pos = 0\n    map_width = 1652\n    map_height = 1221\n\n    x = (map_width * (180 + long) / 360) % map_width + longitude_shift\n    lat = lat * math.pi / 180\n    y = math.log(math.tan((lat/2) + (math.pi/4)))\n    y = (map_height / 2) - (map_width * y / (2 * math.pi)) + y_pos\n\n    x -= x_pos\n    y -= y_pos\n\n    print x+\':\'+y\n\n@auth.requires_login()\ndef search():\n    convert_pos(48,2)\n    if request.args(0)==\'advice\':\n        print \'advice\'\n    elif request.args(0)==\'user\':\n        print \'user\'\n    elif request.args(0)==\'university\':\n        print \'university\'\n    return dict(message=T(\'Search Page\'))\n\n\n@auth.requires_signature()\ndef lang():\n    lang = request.vars.lang\n    if (lang is None) or (lang == \'fr\'):\n        session.language = \'en\'\n    else:\n        session.language = \'fr\'\n    return "ok"\n\n\ndef user():\n    """\n    exposes:\n    http://..../[app]/default/user/login\n    http://..../[app]/default/user/logout\n    http://..../[app]/default/user/register\n    http://..../[app]/default/user/profile\n    http://..../[app]/default/user/retrieve_password\n    http://..../[app]/default/user/change_password\n    http://..../[app]/default/user/manage_users (requires membership in\n    http://..../[app]/default/user/bulk_register\n    use @auth.requires_login()\n        @auth.requires_membership(\'group name\')\n        @auth.requires_permission(\'read\',\'table name\',record_id)\n    to decorate functions that need access control\n    """\n    return dict(form=auth())\n\n\n@cache.action()\ndef download():\n    """\n    allows downloading of uploaded files\n    http://..../[app]/default/download/[filename]\n    """\n    return response.download(request, db)\n\n\ndef call():\n    """\n    exposes services. for example:\n    http://..../[app]/default/call/jsonrpc\n    decorate with @services.jsonrpc the functions to expose\n    supports xml, json, xmlrpc, jsonrpc, amfrpc, rss, csv\n    """\n    return service()\n\n\n\nresponse._vars=response._caller(search)\n'
p7
sS'snapshot'
p8
(dp9
sS'traceback'
p10
S'Traceback (most recent call last):\n  File "/Users/arnaudgallardo/Documents/UCSC/web2py/gluon/restricted.py", line 227, in restricted\n    exec ccode in environment\n  File "/Users/arnaudgallardo/Documents/UCSC/web2py/applications/liub/controllers/default.py", line 102, in <module>\n  File "/Users/arnaudgallardo/Documents/UCSC/web2py/gluon/globals.py", line 412, in <lambda>\n    self._caller = lambda f: f()\n  File "/Users/arnaudgallardo/Documents/UCSC/web2py/gluon/tools.py", line 3774, in f\n    return action(*a, **b)\n  File "/Users/arnaudgallardo/Documents/UCSC/web2py/applications/liub/controllers/default.py", line 43, in search\n    convert_pos(48,2)\n  File "/Users/arnaudgallardo/Documents/UCSC/web2py/applications/liub/controllers/default.py", line 39, in convert_pos\n    print x+\':\'+y\nTypeError: unsupported operand type(s) for +: \'int\' and \'str\'\n'
p11
s.